; Function Attrs: mustprogress uwtable
define noundef ptr @_ZNK7Imf_3_47Context7getAttrEiPKc(ptr noundef nonnull readonly align 8 captures(none) dereferenceable(16) %0, i32 noundef %1, ptr noundef %2) local_unnamed_addr #3 align 2 personality ptr @__gxx_personality_v0 {
  %4 = alloca ptr, align 8
  %5 = alloca %"class.std::__cxx11::basic_stringstream", align 8
  call void @llvm.lifetime.start.p0(i64 8, ptr nonnull %4) #30
  store ptr null, ptr %4, align 8, !tbaa !30
  %6 = load ptr, ptr %0, align 8, !tbaa !8
  %7 = load ptr, ptr %6, align 8, !tbaa !3
  %8 = call i32 @exr_get_attribute_by_name(ptr noundef %7, i32 noundef %1, ptr noundef %2, ptr noundef nonnull %4)
  switch i32 %8, label %11 [
    i32 15, label %9
    i32 0, label %9
  ]

9:                                                ; preds = %3, %3
  %10 = load ptr, ptr %4, align 8, !tbaa !30
  call void @llvm.lifetime.end.p0(i64 8, ptr nonnull %4) #30
  ret ptr %10

11:                                               ; preds = %3
  call void @_Z13iex_debugTrapv()
  call void @llvm.lifetime.start.p0(i64 392, ptr nonnull %5) #30
  call void @_ZNSt7__cxx1118basic_stringstreamIcSt11char_traitsIcESaIcEEC1Ev(ptr noundef nonnull align 8 dereferenceable(128) %5)
  %12 = getelementptr inbounds nuw i8, ptr %5, i64 16
  %13 = invoke noundef nonnull align 8 dereferenceable(8) ptr @_ZSt16__ostream_insertIcSt11char_traitsIcEERSt13basic_ostreamIT_T0_ES6_PKS3_l(ptr noundef nonnull align 8 dereferenceable(8) %12, ptr noundef nonnull @.str.18, i64 noundef 26)
          to label %_ZStlsISt11char_traitsIcEERSt13basic_ostreamIcT_ES5_PKc.exit unwind label %27

_ZStlsISt11char_traitsIcEERSt13basic_ostreamIcT_ES5_PKc.exit: ; preds = %11
  %14 = invoke noundef nonnull align 8 dereferenceable(8) ptr @_ZStlsISt11char_traitsIcEERSt13basic_ostreamIcT_ES5_PKc(ptr noundef nonnull align 8 dereferenceable(8) %12, ptr noundef %2)
          to label %15 unwind label %27

15:                                               ; preds = %_ZStlsISt11char_traitsIcEERSt13basic_ostreamIcT_ES5_PKc.exit
  %16 = invoke noundef nonnull align 8 dereferenceable(8) ptr @_ZSt16__ostream_insertIcSt11char_traitsIcEERSt13basic_ostreamIT_T0_ES6_PKS3_l(ptr noundef nonnull align 8 dereferenceable(8) %14, ptr noundef nonnull @.str.19, i64 noundef 11)
          to label %_ZStlsISt11char_traitsIcEERSt13basic_ostreamIcT_ES5_PKc.exit11 unwind label %27

_ZStlsISt11char_traitsIcEERSt13basic_ostreamIcT_ES5_PKc.exit11: ; preds = %15
  %17 = invoke noundef nonnull align 8 dereferenceable(8) ptr @_ZNSolsEi(ptr noundef nonnull align 8 dereferenceable(8) %14, i32 noundef %1)
          to label %18 unwind label %27

18:                                               ; preds = %_ZStlsISt11char_traitsIcEERSt13basic_ostreamIcT_ES5_PKc.exit11
  %19 = invoke noundef nonnull align 8 dereferenceable(8) ptr @_ZSt16__ostream_insertIcSt11char_traitsIcEERSt13basic_ostreamIT_T0_ES6_PKS3_l(ptr noundef nonnull align 8 dereferenceable(8) %17, ptr noundef nonnull @.str.11, i64 noundef 10)
          to label %_ZStlsISt11char_traitsIcEERSt13basic_ostreamIcT_ES5_PKc.exit12 unwind label %27

_ZStlsISt11char_traitsIcEERSt13basic_ostreamIcT_ES5_PKc.exit12: ; preds = %18
  %20 = invoke noundef ptr @_ZNK7Imf_3_47Context8fileNameEv(ptr noundef nonnull align 8 dereferenceable(16) %0)
          to label %21 unwind label %27

21:                                               ; preds = %_ZStlsISt11char_traitsIcEERSt13basic_ostreamIcT_ES5_PKc.exit12
  %22 = invoke noundef nonnull align 8 dereferenceable(8) ptr @_ZStlsISt11char_traitsIcEERSt13basic_ostreamIcT_ES5_PKc(ptr noundef nonnull align 8 dereferenceable(8) %17, ptr noundef %20)
          to label %23 unwind label %27

23:                                               ; preds = %21
  %24 = invoke noundef nonnull align 8 dereferenceable(8) ptr @_ZSt16__ostream_insertIcSt11char_traitsIcEERSt13basic_ostreamIT_T0_ES6_PKS3_l(ptr noundef nonnull align 8 dereferenceable(8) %22, ptr noundef nonnull @.str.9, i64 noundef 1)
          to label %_ZStlsISt11char_traitsIcEERSt13basic_ostreamIcT_ES5_PKc.exit13 unwind label %27

_ZStlsISt11char_traitsIcEERSt13basic_ostreamIcT_ES5_PKc.exit13: ; preds = %23
  %25 = call ptr @__cxa_allocate_exception(i64 72) #30
  invoke void @_ZN7Iex_3_46ArgExcC1ERNSt7__cxx1118basic_stringstreamIcSt11char_traitsIcESaIcEEE(ptr noundef nonnull align 8 dereferenceable(72) %25, ptr noundef nonnull align 8 dereferenceable(128) %5)
          to label %26 unwind label %29

26:                                               ; preds = %_ZStlsISt11char_traitsIcEERSt13basic_ostreamIcT_ES5_PKc.exit13
  invoke void @__cxa_throw(ptr nonnull %25, ptr nonnull @_ZTIN7Iex_3_46ArgExcE, ptr nonnull @_ZN7Iex_3_46ArgExcD1Ev) #32
          to label %32 unwind label %27

27:                                               ; preds = %23, %18, %15, %11, %26, %21, %_ZStlsISt11char_traitsIcEERSt13basic_ostreamIcT_ES5_PKc.exit12, %_ZStlsISt11char_traitsIcEERSt13basic_ostreamIcT_ES5_PKc.exit11, %_ZStlsISt11char_traitsIcEERSt13basic_ostreamIcT_ES5_PKc.exit
  %28 = landingpad { ptr, i32 }
          cleanup
  br label %31

29:                                               ; preds = %_ZStlsISt11char_traitsIcEERSt13basic_ostreamIcT_ES5_PKc.exit13
  %30 = landingpad { ptr, i32 }
          cleanup
  call void @__cxa_free_exception(ptr nonnull %25) #30
  br label %31

31:                                               ; preds = %29, %27
  %.pn = phi { ptr, i32 } [ %28, %27 ], [ %30, %29 ]
  call void @_ZNSt7__cxx1118basic_stringstreamIcSt11char_traitsIcESaIcEED1Ev(ptr noundef nonnull align 8 dereferenceable(128) %5) #30
  call void @llvm.lifetime.end.p0(i64 392, ptr nonnull %5) #30
  call void @llvm.lifetime.end.p0(i64 8, ptr nonnull %4) #30
  resume { ptr, i32 } %.pn

32:                                               ; preds = %26
  unreachable
}